; Function Attrs: nounwind uwtable
define dso_local void @Curl_free_multi_ssl_backend_data(ptr noundef %0) local_unnamed_addr #2 {
  %2 = load ptr, ptr @Curl_ssl, align 8
  %3 = getelementptr inbounds nuw i8, ptr %2, i64 208
  %4 = load ptr, ptr %3, align 8
  %5 = icmp ne ptr %4, null
  %6 = icmp ne ptr %0, null
  %or.cond = and i1 %6, %5
  br i1 %or.cond, label %7, label %8

7:                                                ; preds = %1
  tail call void %4(ptr noundef nonnull %0) #18
  br label %8

8:                                                ; preds = %7, %1
  ret void
}